; Function Attrs: mustprogress nounwind uwtable
define internal fastcc noundef zeroext i1 @_ZN11flatbuffers2ts11TsGenerator18CheckIfNameClashesERKSt3mapINSt7__cxx1112basic_stringIcSt11char_traitsIcESaIcEEENS_12_GLOBAL__N_116ImportDefinitionESt4lessIS8_ESaISt4pairIKS8_SA_EEERSE_(ptr noundef nonnull readonly align 8 dereferenceable(48) %imports, ptr noundef nonnull align 8 dereferenceable(32) %name) unnamed_addr #6 align 2 personality ptr @__gxx_personality_v0 {
entry:
  %0 = getelementptr inbounds i8, ptr %imports, i64 24
  %imports.val = load ptr, ptr %0, align 8
  %add.ptr.i.i = getelementptr inbounds i8, ptr %imports, i64 8
  %cmp.i6.not = icmp eq ptr %imports.val, %add.ptr.i.i
  br i1 %cmp.i6.not, label %return, label %for.body

for.body:                                         ; preds = %entry, %for.inc
  %it.sroa.0.07 = phi ptr [ %call.i4, %for.inc ], [ %imports.val, %entry ]
  %second = getelementptr inbounds i8, ptr %it.sroa.0.07, i64 64
  %call.i = tail call noundef i64 @_ZNKSt7__cxx1112basic_stringIcSt11char_traitsIcESaIcEE4sizeEv(ptr noundef nonnull align 8 dereferenceable(32) %second) #21
  %call1.i = tail call noundef i64 @_ZNKSt7__cxx1112basic_stringIcSt11char_traitsIcESaIcEE4sizeEv(ptr noundef nonnull align 8 dereferenceable(32) %name) #21
  %cmp.i3 = icmp eq i64 %call.i, %call1.i
  br i1 %cmp.i3, label %land.rhs.i, label %for.inc

land.rhs.i:                                       ; preds = %for.body
  %call2.i = tail call noundef ptr @_ZNKSt7__cxx1112basic_stringIcSt11char_traitsIcESaIcEE4dataEv(ptr noundef nonnull align 8 dereferenceable(32) %second) #21
  %call3.i = tail call noundef ptr @_ZNKSt7__cxx1112basic_stringIcSt11char_traitsIcESaIcEE4dataEv(ptr noundef nonnull align 8 dereferenceable(32) %name) #21
  %call4.i = tail call noundef i64 @_ZNKSt7__cxx1112basic_stringIcSt11char_traitsIcESaIcEE4sizeEv(ptr noundef nonnull align 8 dereferenceable(32) %second) #21
  %cmp.i.i = icmp eq i64 %call4.i, 0
  br i1 %cmp.i.i, label %return, label %_ZSteqIcEN9__gnu_cxx11__enable_ifIXsr9__is_charIT_EE7__valueEbE6__typeERKNSt7__cxx1112basic_stringIS2_St11char_traitsIS2_ESaIS2_EEESC_.exit

_ZSteqIcEN9__gnu_cxx11__enable_ifIXsr9__is_charIT_EE7__valueEbE6__typeERKNSt7__cxx1112basic_stringIS2_St11char_traitsIS2_ESaIS2_EEESC_.exit: ; preds = %land.rhs.i
  %bcmp.i = tail call i32 @bcmp(ptr %call2.i, ptr %call3.i, i64 %call4.i)
  %1 = icmp eq i32 %bcmp.i, 0
  br i1 %1, label %return, label %for.inc

for.inc:                                          ; preds = %for.body, %_ZSteqIcEN9__gnu_cxx11__enable_ifIXsr9__is_charIT_EE7__valueEbE6__typeERKNSt7__cxx1112basic_stringIS2_St11char_traitsIS2_ESaIS2_EEESC_.exit
  %call.i4 = tail call noundef ptr @_ZSt18_Rb_tree_incrementPKSt18_Rb_tree_node_base(ptr noundef %it.sroa.0.07) #23
  %cmp.i.not = icmp eq ptr %call.i4, %add.ptr.i.i
  br i1 %cmp.i.not, label %return, label %for.body, !llvm.loop !194

return:                                           ; preds = %_ZSteqIcEN9__gnu_cxx11__enable_ifIXsr9__is_charIT_EE7__valueEbE6__typeERKNSt7__cxx1112basic_stringIS2_St11char_traitsIS2_ESaIS2_EEESC_.exit, %for.inc, %land.rhs.i, %entry
  %cmp.i.lcssa = phi i1 [ false, %entry ], [ true, %land.rhs.i ], [ false, %for.inc ], [ true, %_ZSteqIcEN9__gnu_cxx11__enable_ifIXsr9__is_charIT_EE7__valueEbE6__typeERKNSt7__cxx1112basic_stringIS2_St11char_traitsIS2_ESaIS2_EEESC_.exit ]
  ret i1 %cmp.i.lcssa
}